target datalayout = "e-m:e-p270:32:32-p271:32:32-p272:64:64-i64:64-i128:128-f80:128-n8:16:32:64-S128"
target triple = "x86_64-pc-linux-gnu"

%struct.FFDrawContext = type { ptr, i32, i32, [4 x i32], [4 x i8], [4 x i8], i8, i8, i32, i32, i32, [3 x [3 x double]] }
%struct.FFDrawColor = type { [4 x i8], [4 x %union.anon.2] }
%union.anon.2 = type { [4 x i32] }
%struct.AVPixFmtDescriptor = type { ptr, i8, i8, i8, i64, [4 x %struct.AVComponentDescriptor], ptr }
%struct.AVComponentDescriptor = type { i32, i32, i32, i32, i32 }

; Function Attrs: nounwind uwtable
define internal void @reverse_color16(ptr noundef %0, ptr noundef %1, ptr noundef %2) #0 {
  %4 = alloca ptr, align 8
  %5 = alloca ptr, align 8
  %6 = alloca ptr, align 8
  %7 = alloca i32, align 4
  %8 = alloca i32, align 4
  %9 = alloca i32, align 4
  store ptr %0, ptr %4, align 8, !tbaa !84
  store ptr %1, ptr %5, align 8, !tbaa !86
  store ptr %2, ptr %6, align 8, !tbaa !86
  call void @llvm.lifetime.start.p0(i64 4, ptr %7) #11
  %10 = load ptr, ptr %6, align 8, !tbaa !86
  %11 = getelementptr inbounds nuw %struct.FFDrawColor, ptr %10, i32 0, i32 0
  %12 = getelementptr inbounds [4 x i8], ptr %11, i64 0, i64 3
  store i8 -1, ptr %12, align 1, !tbaa !70
  store i32 0, ptr %7, align 4, !tbaa !14
  br label %13

13:                                               ; preds = %100, %3
  %14 = load i32, ptr %7, align 4, !tbaa !14
  %15 = load ptr, ptr %4, align 8, !tbaa !84
  %16 = getelementptr inbounds nuw %struct.FFDrawContext, ptr %15, i32 0, i32 2
  %17 = load i32, ptr %16, align 4, !tbaa !109
  %18 = icmp ult i32 %14, %17
  br i1 %18, label %19, label %103

19:                                               ; preds = %13
  call void @llvm.lifetime.start.p0(i64 4, ptr %8) #11
  %20 = load ptr, ptr %4, align 8, !tbaa !84
  %21 = getelementptr inbounds nuw %struct.FFDrawContext, ptr %20, i32 0, i32 0
  %22 = load ptr, ptr %21, align 8, !tbaa !115
  %23 = getelementptr inbounds nuw %struct.AVPixFmtDescriptor, ptr %22, i32 0, i32 5
  %24 = load i32, ptr %7, align 4, !tbaa !14
  %25 = sext i32 %24 to i64
  %26 = getelementptr inbounds [4 x %struct.AVComponentDescriptor], ptr %23, i64 0, i64 %25
  %27 = getelementptr inbounds nuw %struct.AVComponentDescriptor, ptr %26, i32 0, i32 4
  %28 = load i32, ptr %27, align 4, !tbaa !75
  %29 = shl i32 1, %28
  %30 = sub nsw i32 %29, 1
  store i32 %30, ptr %8, align 4, !tbaa !14
  call void @llvm.lifetime.start.p0(i64 4, ptr %9) #11
  %31 = load i32, ptr %8, align 4, !tbaa !14
  %32 = add i32 %31, 1
  %33 = udiv i32 %32, 2
  store i32 %33, ptr %9, align 4, !tbaa !14
  %34 = load ptr, ptr %5, align 8, !tbaa !86
  %35 = getelementptr inbounds nuw %struct.FFDrawColor, ptr %34, i32 0, i32 1
  %36 = load i32, ptr %7, align 4, !tbaa !14
  %37 = sext i32 %36 to i64
  %38 = getelementptr inbounds [4 x %union.anon.2], ptr %35, i64 0, i64 %37
  %39 = getelementptr inbounds [8 x i16], ptr %38, i64 0, i64 0
  %40 = load i16, ptr %39, align 4, !tbaa !70
  %41 = zext i16 %40 to i32
  %42 = load i32, ptr %9, align 4, !tbaa !14
  %43 = icmp ugt i32 %41, %42
  br i1 %43, label %44, label %45

44:                                               ; preds = %19
  br label %47

45:                                               ; preds = %19
  %46 = load i32, ptr %8, align 4, !tbaa !14
  br label %47

47:                                               ; preds = %45, %44
  %48 = phi i32 [ 0, %44 ], [ %46, %45 ]
  %49 = trunc i32 %48 to i16
  %50 = load ptr, ptr %6, align 8, !tbaa !86
  %51 = getelementptr inbounds nuw %struct.FFDrawColor, ptr %50, i32 0, i32 1
  %52 = load i32, ptr %7, align 4, !tbaa !14
  %53 = sext i32 %52 to i64
  %54 = getelementptr inbounds [4 x %union.anon.2], ptr %51, i64 0, i64 %53
  %55 = getelementptr inbounds [8 x i16], ptr %54, i64 0, i64 0
  store i16 %49, ptr %55, align 4, !tbaa !70
  %56 = load ptr, ptr %5, align 8, !tbaa !86
  %57 = getelementptr inbounds nuw %struct.FFDrawColor, ptr %56, i32 0, i32 1
  %58 = load i32, ptr %7, align 4, !tbaa !14
  %59 = sext i32 %58 to i64
  %60 = getelementptr inbounds [4 x %union.anon.2], ptr %57, i64 0, i64 %59
  %61 = getelementptr inbounds [8 x i16], ptr %60, i64 0, i64 1
  %62 = load i16, ptr %61, align 2, !tbaa !70
  %63 = zext i16 %62 to i32
  %64 = load i32, ptr %9, align 4, !tbaa !14
  %65 = icmp ugt i32 %63, %64
  br i1 %65, label %66, label %67

66:                                               ; preds = %47
  br label %69

67:                                               ; preds = %47
  %68 = load i32, ptr %8, align 4, !tbaa !14
  br label %69

69:                                               ; preds = %67, %66
  %70 = phi i32 [ 0, %66 ], [ %68, %67 ]
  %71 = trunc i32 %70 to i16
  %72 = load ptr, ptr %6, align 8, !tbaa !86
  %73 = getelementptr inbounds nuw %struct.FFDrawColor, ptr %72, i32 0, i32 1
  %74 = load i32, ptr %7, align 4, !tbaa !14
  %75 = sext i32 %74 to i64
  %76 = getelementptr inbounds [4 x %union.anon.2], ptr %73, i64 0, i64 %75
  %77 = getelementptr inbounds [8 x i16], ptr %76, i64 0, i64 1
  store i16 %71, ptr %77, align 2, !tbaa !70
  %78 = load ptr, ptr %5, align 8, !tbaa !86
  %79 = getelementptr inbounds nuw %struct.FFDrawColor, ptr %78, i32 0, i32 1
  %80 = load i32, ptr %7, align 4, !tbaa !14
  %81 = sext i32 %80 to i64
  %82 = getelementptr inbounds [4 x %union.anon.2], ptr %79, i64 0, i64 %81
  %83 = getelementptr inbounds [8 x i16], ptr %82, i64 0, i64 2
  %84 = load i16, ptr %83, align 4, !tbaa !70
  %85 = zext i16 %84 to i32
  %86 = load i32, ptr %9, align 4, !tbaa !14
  %87 = icmp ugt i32 %85, %86
  br i1 %87, label %88, label %89

88:                                               ; preds = %69
  br label %91

89:                                               ; preds = %69
  %90 = load i32, ptr %8, align 4, !tbaa !14
  br label %91

91:                                               ; preds = %89, %88
  %92 = phi i32 [ 0, %88 ], [ %90, %89 ]
  %93 = trunc i32 %92 to i16
  %94 = load ptr, ptr %6, align 8, !tbaa !86
  %95 = getelementptr inbounds nuw %struct.FFDrawColor, ptr %94, i32 0, i32 1
  %96 = load i32, ptr %7, align 4, !tbaa !14
  %97 = sext i32 %96 to i64
  %98 = getelementptr inbounds [4 x %union.anon.2], ptr %95, i64 0, i64 %97
  %99 = getelementptr inbounds [8 x i16], ptr %98, i64 0, i64 2
  store i16 %93, ptr %99, align 4, !tbaa !70
  call void @llvm.lifetime.end.p0(i64 4, ptr %9) #11
  call void @llvm.lifetime.end.p0(i64 4, ptr %8) #11
  br label %100

100:                                              ; preds = %91
  %101 = load i32, ptr %7, align 4, !tbaa !14
  %102 = add nsw i32 %101, 1
  store i32 %102, ptr %7, align 4, !tbaa !14
  br label %13, !llvm.loop !116

103:                                              ; preds = %13
  call void @llvm.lifetime.end.p0(i64 4, ptr %7) #11
  ret void
}