; Function Attrs: nofree norecurse nosync nounwind memory(read, argmem: readwrite, inaccessiblemem: none) uwtable
define internal void @reverse_color16(ptr noundef readonly captures(none) %0, ptr noundef readonly captures(none) %1, ptr noundef writeonly captures(none) initializes((3, 4)) %2) #7 {
  %4 = getelementptr inbounds nuw i8, ptr %2, i64 3
  store i8 -1, ptr %4, align 1, !tbaa !51
  %5 = getelementptr inbounds nuw i8, ptr %0, i64 12
  %6 = load i32, ptr %5, align 4, !tbaa !93
  %.not = icmp eq i32 %6, 0
  br i1 %.not, label %._crit_edge, label %.lr.ph

.lr.ph:                                           ; preds = %3
  %7 = getelementptr inbounds nuw i8, ptr %1, i64 4
  %8 = getelementptr inbounds nuw i8, ptr %2, i64 4
  br label %9

9:                                                ; preds = %.lr.ph, %9
  %indvars.iv = phi i64 [ 0, %.lr.ph ], [ %indvars.iv.next, %9 ]
  %10 = load ptr, ptr %0, align 8, !tbaa !99
  %.idx = mul nuw nsw i64 %indvars.iv, 20
  %11 = getelementptr i8, ptr %10, i64 40
  %12 = getelementptr i8, ptr %11, i64 %.idx
  %13 = load i32, ptr %12, align 4, !tbaa !74
  %14 = shl nuw i32 1, %13
  %15 = lshr i32 %14, 1
  %16 = getelementptr inbounds nuw [4 x %union.anon.2], ptr %7, i64 0, i64 %indvars.iv
  %17 = load i16, ptr %16, align 4, !tbaa !51
  %18 = zext i16 %17 to i32
  %19 = icmp samesign ult i32 %15, %18
  %20 = trunc i32 %14 to i16
  %21 = add i16 %20, -1
  %22 = select i1 %19, i16 0, i16 %21
  %23 = getelementptr inbounds nuw [4 x %union.anon.2], ptr %8, i64 0, i64 %indvars.iv
  store i16 %22, ptr %23, align 4, !tbaa !51
  %24 = getelementptr inbounds nuw i8, ptr %16, i64 2
  %25 = load i16, ptr %24, align 2, !tbaa !51
  %26 = zext i16 %25 to i32
  %27 = icmp samesign ult i32 %15, %26
  %28 = select i1 %27, i16 0, i16 %21
  %29 = getelementptr inbounds nuw i8, ptr %23, i64 2
  store i16 %28, ptr %29, align 2, !tbaa !51
  %30 = getelementptr inbounds nuw i8, ptr %16, i64 4
  %31 = load i16, ptr %30, align 4, !tbaa !51
  %32 = zext i16 %31 to i32
  %33 = icmp samesign ult i32 %15, %32
  %34 = select i1 %33, i16 0, i16 %21
  %35 = getelementptr inbounds nuw i8, ptr %23, i64 4
  store i16 %34, ptr %35, align 4, !tbaa !51
  %indvars.iv.next = add nuw nsw i64 %indvars.iv, 1
  %36 = load i32, ptr %5, align 4, !tbaa !93
  %37 = zext i32 %36 to i64
  %38 = icmp samesign ult i64 %indvars.iv.next, %37
  br i1 %38, label %9, label %._crit_edge, !llvm.loop !100

._crit_edge:                                      ; preds = %9, %3
  ret void
}